; ModuleID = '57/2275.c'
source_filename = "57/2275.c"
target datalayout = "e-m:e-p270:32:32-p271:32:32-p272:64:64-i64:64-f80:128-n8:16:32:64-S128"
target triple = "x86_64-pc-linux-gnu"

@.str = private unnamed_addr constant [3 x i8] c"%d\00", align 1
@.str.1 = private unnamed_addr constant [3 x i8] c"%s\00", align 1
@.str.2 = private unnamed_addr constant [4 x i8] c"%s\0A\00", align 1

; Function Attrs: noinline nounwind uwtable
define dso_local i32 @main() #0 {
  %1 = alloca i32, align 4
  %2 = alloca [50 x [10 x i8]], align 16
  %3 = alloca i32, align 4
  %4 = alloca i32, align 4
  store i32 0, i32* %1, align 4
  %5 = call i32 (i8*, ...) @__isoc99_scanf(i8* getelementptr inbounds ([3 x i8], [3 x i8]* @.str, i64 0, i64 0), i32* %3)
  store i32 0, i32* %4, align 4
  br label %6

6:                                                ; preds = %18, %0
  %7 = load i32, i32* %4, align 4
  %8 = load i32, i32* %3, align 4
  %9 = sub nsw i32 %8, 1
  %10 = icmp sle i32 %7, %9
  br i1 %10, label %11, label %21

11:                                               ; preds = %6
  %12 = getelementptr inbounds [50 x [10 x i8]], [50 x [10 x i8]]* %2, i64 0, i64 0
  %13 = load i32, i32* %4, align 4
  %14 = sext i32 %13 to i64
  %15 = getelementptr inbounds [10 x i8], [10 x i8]* %12, i64 %14
  %16 = getelementptr inbounds [10 x i8], [10 x i8]* %15, i64 0, i64 0
  %17 = call i32 (i8*, ...) @__isoc99_scanf(i8* getelementptr inbounds ([3 x i8], [3 x i8]* @.str.1, i64 0, i64 0), i8* %16)
  br label %18

18:                                               ; preds = %11
  %19 = load i32, i32* %4, align 4
  %20 = add nsw i32 %19, 1
  store i32 %20, i32* %4, align 4
  br label %6

21:                                               ; preds = %6
  store i32 0, i32* %4, align 4
  br label %22

22:                                               ; preds = %40, %21
  %23 = load i32, i32* %4, align 4
  %24 = load i32, i32* %3, align 4
  %25 = sub nsw i32 %24, 1
  %26 = icmp sle i32 %23, %25
  br i1 %26, label %27, label %43

27:                                               ; preds = %22
  %28 = getelementptr inbounds [50 x [10 x i8]], [50 x [10 x i8]]* %2, i64 0, i64 0
  %29 = load i32, i32* %4, align 4
  %30 = sext i32 %29 to i64
  %31 = getelementptr inbounds [10 x i8], [10 x i8]* %28, i64 %30
  %32 = getelementptr inbounds [10 x i8], [10 x i8]* %31, i64 0, i64 0
  %33 = getelementptr inbounds [50 x [10 x i8]], [50 x [10 x i8]]* %2, i64 0, i64 0
  %34 = load i32, i32* %4, align 4
  %35 = sext i32 %34 to i64
  %36 = getelementptr inbounds [10 x i8], [10 x i8]* %33, i64 %35
  %37 = getelementptr inbounds [10 x i8], [10 x i8]* %36, i64 0, i64 0
  %38 = call i64 @strlen(i8* %37) #3
  %39 = trunc i64 %38 to i32
  call void @del(i8* %32, i32 %39)
  br label %40

40:                                               ; preds = %27
  %41 = load i32, i32* %4, align 4
  %42 = add nsw i32 %41, 1
  store i32 %42, i32* %4, align 4
  br label %22

43:                                               ; preds = %22
  store i32 0, i32* %4, align 4
  br label %44

44:                                               ; preds = %55, %43
  %45 = load i32, i32* %4, align 4
  %46 = load i32, i32* %3, align 4
  %47 = sub nsw i32 %46, 1
  %48 = icmp sle i32 %45, %47
  br i1 %48, label %49, label %58

49:                                               ; preds = %44
  %50 = getelementptr inbounds [50 x [10 x i8]], [50 x [10 x i8]]* %2, i64 0, i64 0
  %51 = load i32, i32* %4, align 4
  %52 = sext i32 %51 to i64
  %53 = getelementptr inbounds [10 x i8], [10 x i8]* %50, i64 %52
  %54 = call i32 (i8*, ...) @printf(i8* getelementptr inbounds ([4 x i8], [4 x i8]* @.str.2, i64 0, i64 0), [10 x i8]* %53)
  br label %55

55:                                               ; preds = %49
  %56 = load i32, i32* %4, align 4
  %57 = add nsw i32 %56, 1
  store i32 %57, i32* %4, align 4
  br label %44

58:                                               ; preds = %44
  ret i32 0
}

declare dso_local i32 @__isoc99_scanf(i8*, ...) #1

; Function Attrs: noinline nounwind uwtable
define dso_local void @del(i8* %0, i32 %1) #0 {
  %3 = alloca i8*, align 8
  %4 = alloca i32, align 4
  store i8* %0, i8** %3, align 8
  store i32 %1, i32* %4, align 4
  %5 = load i8*, i8** %3, align 8
  %6 = load i32, i32* %4, align 4
  %7 = sub nsw i32 %6, 2
  %8 = sext i32 %7 to i64
  %9 = getelementptr inbounds i8, i8* %5, i64 %8
  %10 = load i8, i8* %9, align 1
  %11 = sext i8 %10 to i32
  %12 = icmp eq i32 %11, 101
  br i1 %12, label %13, label %28

13:                                               ; preds = %2
  %14 = load i8*, i8** %3, align 8
  %15 = load i32, i32* %4, align 4
  %16 = sub nsw i32 %15, 1
  %17 = sext i32 %16 to i64
  %18 = getelementptr inbounds i8, i8* %14, i64 %17
  %19 = load i8, i8* %18, align 1
  %20 = sext i8 %19 to i32
  %21 = icmp eq i32 %20, 114
  br i1 %21, label %22, label %28

22:                                               ; preds = %13
  %23 = load i8*, i8** %3, align 8
  %24 = load i32, i32* %4, align 4
  %25 = sub nsw i32 %24, 2
  %26 = sext i32 %25 to i64
  %27 = getelementptr inbounds i8, i8* %23, i64 %26
  store i8 0, i8* %27, align 1
  br label %28

28:                                               ; preds = %22, %13, %2
  %29 = load i8*, i8** %3, align 8
  %30 = load i32, i32* %4, align 4
  %31 = sub nsw i32 %30, 2
  %32 = sext i32 %31 to i64
  %33 = getelementptr inbounds i8, i8* %29, i64 %32
  %34 = load i8, i8* %33, align 1
  %35 = sext i8 %34 to i32
  %36 = icmp eq i32 %35, 108
  br i1 %36, label %37, label %52

37:                                               ; preds = %28
  %38 = load i8*, i8** %3, align 8
  %39 = load i32, i32* %4, align 4
  %40 = sub nsw i32 %39, 1
  %41 = sext i32 %40 to i64
  %42 = getelementptr inbounds i8, i8* %38, i64 %41
  %43 = load i8, i8* %42, align 1
  %44 = sext i8 %43 to i32
  %45 = icmp eq i32 %44, 121
  br i1 %45, label %46, label %52

46:                                               ; preds = %37
  %47 = load i8*, i8** %3, align 8
  %48 = load i32, i32* %4, align 4
  %49 = sub nsw i32 %48, 2
  %50 = sext i32 %49 to i64
  %51 = getelementptr inbounds i8, i8* %47, i64 %50
  store i8 0, i8* %51, align 1
  br label %52

52:                                               ; preds = %46, %37, %28
  %53 = load i8*, i8** %3, align 8
  %54 = load i32, i32* %4, align 4
  %55 = sub nsw i32 %54, 3
  %56 = sext i32 %55 to i64
  %57 = getelementptr inbounds i8, i8* %53, i64 %56
  %58 = load i8, i8* %57, align 1
  %59 = sext i8 %58 to i32
  %60 = icmp eq i32 %59, 105
  br i1 %60, label %61, label %85

61:                                               ; preds = %52
  %62 = load i8*, i8** %3, align 8
  %63 = load i32, i32* %4, align 4
  %64 = sub nsw i32 %63, 2
  %65 = sext i32 %64 to i64
  %66 = getelementptr inbounds i8, i8* %62, i64 %65
  %67 = load i8, i8* %66, align 1
  %68 = sext i8 %67 to i32
  %69 = icmp eq i32 %68, 110
  br i1 %69, label %70, label %85

70:                                               ; preds = %61
  %71 = load i8*, i8** %3, align 8
  %72 = load i32, i32* %4, align 4
  %73 = sub nsw i32 %72, 1
  %74 = sext i32 %73 to i64
  %75 = getelementptr inbounds i8, i8* %71, i64 %74
  %76 = load i8, i8* %75, align 1
  %77 = sext i8 %76 to i32
  %78 = icmp eq i32 %77, 103
  br i1 %78, label %79, label %85

79:                                               ; preds = %70
  %80 = load i8*, i8** %3, align 8
  %81 = load i32, i32* %4, align 4
  %82 = sub nsw i32 %81, 3
  %83 = sext i32 %82 to i64
  %84 = getelementptr inbounds i8, i8* %80, i64 %83
  store i8 0, i8* %84, align 1
  br label %85

85:                                               ; preds = %79, %70, %61, %52
  ret void
}

; Function Attrs: nounwind readonly
declare dso_local i64 @strlen(i8*) #2

declare dso_local i32 @printf(i8*, ...) #1


!llvm.module.flags = !{!0}
!llvm.ident = !{!1}

!0 = !{i32 1, !"wchar_size", i32 4}
!1 = !{!"clang version 10.0.0-4ubuntu1 "}
